target datalayout = "e-m:e-p270:32:32-p271:32:32-p272:64:64-i64:64-i128:128-f80:128-n8:16:32:64-S128"
target triple = "x86_64-pc-linux-gnu"

%struct.ZSTD_customMem = type { ptr, ptr, ptr }
%struct.POOL_ctx_s = type { %struct.ZSTD_customMem, ptr, i64, i64, ptr, i64, i64, i64, i64, i32, %union.pthread_mutex_t, %union.pthread_cond_t, %union.pthread_cond_t, i32 }
%union.pthread_mutex_t = type { %struct.__pthread_mutex_s }
%struct.__pthread_mutex_s = type { i32, i32, i32, i32, i32, i16, i16, %struct.__pthread_internal_list }
%struct.__pthread_internal_list = type { ptr, ptr }
%union.pthread_cond_t = type { %struct.__pthread_cond_s }
%struct.__pthread_cond_s = type { %union.__atomic_wide_counter, %union.__atomic_wide_counter, [2 x i32], [2 x i32], i32, i32, [2 x i32] }
%union.__atomic_wide_counter = type { i64 }
%struct.POOL_job_s = type { ptr, ptr }

; Function Attrs: nounwind uwtable
define internal ptr @POOL_thread(ptr noundef %0) #0 {
  %2 = alloca ptr, align 8
  %3 = alloca ptr, align 8
  %4 = alloca ptr, align 8
  %5 = alloca i32, align 4
  %6 = alloca %struct.POOL_job_s, align 8
  store ptr %0, ptr %3, align 8, !tbaa !26
  call void @llvm.lifetime.start.p0(i64 8, ptr %4) #8
  %7 = load ptr, ptr %3, align 8, !tbaa !26
  store ptr %7, ptr %4, align 8, !tbaa !7
  %8 = load ptr, ptr %4, align 8, !tbaa !7
  %9 = icmp ne ptr %8, null
  br i1 %9, label %11, label %10

10:                                               ; preds = %1
  store ptr null, ptr %2, align 8
  store i32 1, ptr %5, align 4
  br label %102

11:                                               ; preds = %1
  br label %12

12:                                               ; preds = %47, %11
  %13 = load ptr, ptr %4, align 8, !tbaa !7
  %14 = getelementptr inbounds nuw %struct.POOL_ctx_s, ptr %13, i32 0, i32 10
  %15 = call i32 @pthread_mutex_lock(ptr noundef %14) #8
  br label %16

16:                                               ; preds = %41, %12
  %17 = load ptr, ptr %4, align 8, !tbaa !7
  %18 = getelementptr inbounds nuw %struct.POOL_ctx_s, ptr %17, i32 0, i32 9
  %19 = load i32, ptr %18, align 8, !tbaa !20
  %20 = icmp ne i32 %19, 0
  br i1 %20, label %29, label %21

21:                                               ; preds = %16
  %22 = load ptr, ptr %4, align 8, !tbaa !7
  %23 = getelementptr inbounds nuw %struct.POOL_ctx_s, ptr %22, i32 0, i32 8
  %24 = load i64, ptr %23, align 8, !tbaa !19
  %25 = load ptr, ptr %4, align 8, !tbaa !7
  %26 = getelementptr inbounds nuw %struct.POOL_ctx_s, ptr %25, i32 0, i32 3
  %27 = load i64, ptr %26, align 8, !tbaa !29
  %28 = icmp uge i64 %24, %27
  br label %29

29:                                               ; preds = %21, %16
  %30 = phi i1 [ true, %16 ], [ %28, %21 ]
  br i1 %30, label %31, label %47

31:                                               ; preds = %29
  %32 = load ptr, ptr %4, align 8, !tbaa !7
  %33 = getelementptr inbounds nuw %struct.POOL_ctx_s, ptr %32, i32 0, i32 13
  %34 = load i32, ptr %33, align 8, !tbaa !22
  %35 = icmp ne i32 %34, 0
  br i1 %35, label %36, label %41

36:                                               ; preds = %31
  %37 = load ptr, ptr %4, align 8, !tbaa !7
  %38 = getelementptr inbounds nuw %struct.POOL_ctx_s, ptr %37, i32 0, i32 10
  %39 = call i32 @pthread_mutex_unlock(ptr noundef %38) #8
  %40 = load ptr, ptr %3, align 8, !tbaa !26
  store ptr %40, ptr %2, align 8
  store i32 1, ptr %5, align 4
  br label %102

41:                                               ; preds = %31
  %42 = load ptr, ptr %4, align 8, !tbaa !7
  %43 = getelementptr inbounds nuw %struct.POOL_ctx_s, ptr %42, i32 0, i32 12
  %44 = load ptr, ptr %4, align 8, !tbaa !7
  %45 = getelementptr inbounds nuw %struct.POOL_ctx_s, ptr %44, i32 0, i32 10
  %46 = call i32 @pthread_cond_wait(ptr noundef %43, ptr noundef %45)
  br label %16, !llvm.loop !32

47:                                               ; preds = %29
  call void @llvm.lifetime.start.p0(i64 16, ptr %6) #8
  %48 = load ptr, ptr %4, align 8, !tbaa !7
  %49 = getelementptr inbounds nuw %struct.POOL_ctx_s, ptr %48, i32 0, i32 4
  %50 = load ptr, ptr %49, align 8, !tbaa !16
  %51 = load ptr, ptr %4, align 8, !tbaa !7
  %52 = getelementptr inbounds nuw %struct.POOL_ctx_s, ptr %51, i32 0, i32 5
  %53 = load i64, ptr %52, align 8, !tbaa !17
  %54 = getelementptr inbounds nuw %struct.POOL_job_s, ptr %50, i64 %53
  call void @llvm.memcpy.p0.p0.i64(ptr align 8 %6, ptr align 8 %54, i64 16, i1 false), !tbaa.struct !33
  %55 = load ptr, ptr %4, align 8, !tbaa !7
  %56 = getelementptr inbounds nuw %struct.POOL_ctx_s, ptr %55, i32 0, i32 5
  %57 = load i64, ptr %56, align 8, !tbaa !17
  %58 = add i64 %57, 1
  %59 = load ptr, ptr %4, align 8, !tbaa !7
  %60 = getelementptr inbounds nuw %struct.POOL_ctx_s, ptr %59, i32 0, i32 7
  %61 = load i64, ptr %60, align 8, !tbaa !10
  %62 = urem i64 %58, %61
  %63 = load ptr, ptr %4, align 8, !tbaa !7
  %64 = getelementptr inbounds nuw %struct.POOL_ctx_s, ptr %63, i32 0, i32 5
  store i64 %62, ptr %64, align 8, !tbaa !17
  %65 = load ptr, ptr %4, align 8, !tbaa !7
  %66 = getelementptr inbounds nuw %struct.POOL_ctx_s, ptr %65, i32 0, i32 8
  %67 = load i64, ptr %66, align 8, !tbaa !19
  %68 = add i64 %67, 1
  store i64 %68, ptr %66, align 8, !tbaa !19
  %69 = load ptr, ptr %4, align 8, !tbaa !7
  %70 = getelementptr inbounds nuw %struct.POOL_ctx_s, ptr %69, i32 0, i32 5
  %71 = load i64, ptr %70, align 8, !tbaa !17
  %72 = load ptr, ptr %4, align 8, !tbaa !7
  %73 = getelementptr inbounds nuw %struct.POOL_ctx_s, ptr %72, i32 0, i32 6
  %74 = load i64, ptr %73, align 8, !tbaa !18
  %75 = icmp eq i64 %71, %74
  %76 = zext i1 %75 to i32
  %77 = load ptr, ptr %4, align 8, !tbaa !7
  %78 = getelementptr inbounds nuw %struct.POOL_ctx_s, ptr %77, i32 0, i32 9
  store i32 %76, ptr %78, align 8, !tbaa !20
  %79 = load ptr, ptr %4, align 8, !tbaa !7
  %80 = getelementptr inbounds nuw %struct.POOL_ctx_s, ptr %79, i32 0, i32 11
  %81 = call i32 @pthread_cond_signal(ptr noundef %80) #8
  %82 = load ptr, ptr %4, align 8, !tbaa !7
  %83 = getelementptr inbounds nuw %struct.POOL_ctx_s, ptr %82, i32 0, i32 10
  %84 = call i32 @pthread_mutex_unlock(ptr noundef %83) #8
  %85 = getelementptr inbounds nuw %struct.POOL_job_s, ptr %6, i32 0, i32 0
  %86 = load ptr, ptr %85, align 8, !tbaa !34
  %87 = getelementptr inbounds nuw %struct.POOL_job_s, ptr %6, i32 0, i32 1
  %88 = load ptr, ptr %87, align 8, !tbaa !36
  call void %86(ptr noundef %88)
  %89 = load ptr, ptr %4, align 8, !tbaa !7
  %90 = getelementptr inbounds nuw %struct.POOL_ctx_s, ptr %89, i32 0, i32 10
  %91 = call i32 @pthread_mutex_lock(ptr noundef %90) #8
  %92 = load ptr, ptr %4, align 8, !tbaa !7
  %93 = getelementptr inbounds nuw %struct.POOL_ctx_s, ptr %92, i32 0, i32 8
  %94 = load i64, ptr %93, align 8, !tbaa !19
  %95 = add i64 %94, -1
  store i64 %95, ptr %93, align 8, !tbaa !19
  %96 = load ptr, ptr %4, align 8, !tbaa !7
  %97 = getelementptr inbounds nuw %struct.POOL_ctx_s, ptr %96, i32 0, i32 11
  %98 = call i32 @pthread_cond_signal(ptr noundef %97) #8
  %99 = load ptr, ptr %4, align 8, !tbaa !7
  %100 = getelementptr inbounds nuw %struct.POOL_ctx_s, ptr %99, i32 0, i32 10
  %101 = call i32 @pthread_mutex_unlock(ptr noundef %100) #8
  call void @llvm.lifetime.end.p0(i64 16, ptr %6) #8
  br label %12

102:                                              ; preds = %36, %10
  call void @llvm.lifetime.end.p0(i64 8, ptr %4) #8
  %103 = load ptr, ptr %2, align 8
  ret ptr %103
}