; Function Attrs: nounwind uwtable
define internal noundef ptr @POOL_thread(ptr noundef returned %0) #0 {
  %.not = icmp eq ptr %0, null
  br i1 %.not, label %43, label %.preheader

.preheader:                                       ; preds = %1
  %2 = getelementptr inbounds nuw i8, ptr %0, i64 96
  %3 = getelementptr inbounds nuw i8, ptr %0, i64 88
  %4 = getelementptr inbounds nuw i8, ptr %0, i64 80
  %5 = getelementptr inbounds nuw i8, ptr %0, i64 40
  %6 = getelementptr inbounds nuw i8, ptr %0, i64 232
  %7 = getelementptr inbounds nuw i8, ptr %0, i64 184
  %8 = getelementptr inbounds nuw i8, ptr %0, i64 48
  %9 = getelementptr inbounds nuw i8, ptr %0, i64 56
  %10 = getelementptr inbounds nuw i8, ptr %0, i64 72
  %11 = getelementptr inbounds nuw i8, ptr %0, i64 64
  %12 = getelementptr inbounds nuw i8, ptr %0, i64 136
  br label %13

13:                                               ; preds = %.preheader, %25
  %14 = tail call i32 @pthread_mutex_lock(ptr noundef nonnull %2) #9
  br label %15

15:                                               ; preds = %23, %13
  %16 = load i32, ptr %3, align 8, !tbaa !16
  %.not27 = icmp eq i32 %16, 0
  br i1 %.not27, label %17, label %.critedge

17:                                               ; preds = %15
  %18 = load i64, ptr %4, align 8, !tbaa !15
  %19 = load i64, ptr %5, align 8, !tbaa !24
  %.not28 = icmp ult i64 %18, %19
  br i1 %.not28, label %25, label %.critedge

.critedge:                                        ; preds = %15, %17
  %20 = load i32, ptr %6, align 8, !tbaa !17
  %.not29 = icmp eq i32 %20, 0
  br i1 %.not29, label %23, label %21

21:                                               ; preds = %.critedge
  %22 = tail call i32 @pthread_mutex_unlock(ptr noundef nonnull %2) #9
  br label %43

23:                                               ; preds = %.critedge
  %24 = tail call i32 @pthread_cond_wait(ptr noundef nonnull %7, ptr noundef nonnull %2) #9
  br label %15, !llvm.loop !27

25:                                               ; preds = %17
  %26 = load ptr, ptr %8, align 8, !tbaa !14
  %27 = load i64, ptr %9, align 8, !tbaa !28
  %28 = getelementptr inbounds nuw %struct.POOL_job_s, ptr %26, i64 %27
  %.sroa.0.0.copyload = load ptr, ptr %28, align 8, !tbaa !21
  %.sroa.4.0..sroa_idx = getelementptr inbounds nuw i8, ptr %28, i64 8
  %.sroa.4.0.copyload = load ptr, ptr %.sroa.4.0..sroa_idx, align 8, !tbaa !21
  %29 = add i64 %27, 1
  %30 = load i64, ptr %10, align 8, !tbaa !8
  %31 = urem i64 %29, %30
  store i64 %31, ptr %9, align 8, !tbaa !28
  %32 = add nuw i64 %18, 1
  store i64 %32, ptr %4, align 8, !tbaa !15
  %33 = load i64, ptr %11, align 8, !tbaa !29
  %34 = icmp eq i64 %31, %33
  %35 = zext i1 %34 to i32
  store i32 %35, ptr %3, align 8, !tbaa !16
  %36 = tail call i32 @pthread_cond_signal(ptr noundef nonnull %12) #9
  %37 = tail call i32 @pthread_mutex_unlock(ptr noundef nonnull %2) #9
  tail call void %.sroa.0.0.copyload(ptr noundef %.sroa.4.0.copyload) #9
  %38 = tail call i32 @pthread_mutex_lock(ptr noundef nonnull %2) #9
  %39 = load i64, ptr %4, align 8, !tbaa !15
  %40 = add i64 %39, -1
  store i64 %40, ptr %4, align 8, !tbaa !15
  %41 = tail call i32 @pthread_cond_signal(ptr noundef nonnull %12) #9
  %42 = tail call i32 @pthread_mutex_unlock(ptr noundef nonnull %2) #9
  br label %13

43:                                               ; preds = %1, %21
  ret ptr %0
}